#include <math.h>
#include <stdio.h>
#include <stdlib.h>
#include <string.h>

int main(){
	int a,b,n,i,j,z[100],x[100];
	scanf("%d",&n);
	for(i=0;i<n;i++){
		scanf("%d",&(z[i]));
	}
	for(i=0;i<n;i++){
		for(j=1;j<=z[i];j++){
			if(j==1){
				a=1;
				x[i]=a;
			}
			if(j==2){
                b=1;
				x[i]=b;
			}
			if(j>2){
                x[i]=a+b;
				a=b;
				b=x[i];
			}
		}
	}
	for(i=0;i<n;i++){
		printf("%d\n",x[i]);
	}
	return 0;
}